target datalayout = "e-m:e-p270:32:32-p271:32:32-p272:64:64-i64:64-i128:128-f80:128-n8:16:32:64-S128"
target triple = "x86_64-pc-linux-gnu"

%"struct.(anonymous namespace)::LoopICmp" = type { i32, ptr, ptr }
%"class.llvm::SCEVNAryExpr" = type { %"class.llvm::SCEV.base", ptr, i64 }
%"class.llvm::SCEV.base" = type <{ %"class.llvm::FoldingSetBase::Node", %"class.llvm::FoldingSetNodeIDRef", i16, i16, i16 }>
%"class.llvm::FoldingSetBase::Node" = type { ptr }
%"class.llvm::FoldingSetNodeIDRef" = type { ptr, i64 }

; Function Attrs: mustprogress nounwind uwtable
define linkonce_odr hidden noundef ptr @_ZNK4llvm14SCEVAddRecExpr8getStartEv(ptr noundef nonnull align 8 dereferenceable(56) %0) #1 comdat align 2 {
  %2 = alloca ptr, align 8
  store ptr %0, ptr %2, align 8
  %3 = load ptr, ptr %2, align 8
  %4 = getelementptr inbounds nuw %"class.llvm::SCEVNAryExpr", ptr %3, i32 0, i32 1
  %5 = load ptr, ptr %4, align 8
  %6 = getelementptr inbounds ptr, ptr %5, i64 0
  %7 = load ptr, ptr %6, align 8
  ret ptr %7
}

; Function Attrs: mustprogress nounwind uwtable
define linkonce_odr hidden noundef zeroext i1 @_ZN4llvm8ICmpInst10isEqualityENS_7CmpInst9PredicateE(i32 noundef %0) #1 comdat align 2 {
  %2 = alloca i32, align 4
  store i32 %0, ptr %2, align 4
  %3 = load i32, ptr %2, align 4
  %4 = icmp eq i32 %3, 32
  br i1 %4, label %8, label %5

5:                                                ; preds = %1
  %6 = load i32, ptr %2, align 4
  %7 = icmp eq i32 %6, 33
  br label %8

8:                                                ; preds = %5, %1
  %9 = phi i1 [ true, %1 ], [ %7, %5 ]
  ret i1 %9
}

; Function Attrs: mustprogress nounwind uwtable
define internal void @_ZL18normalizePredicatePN4llvm15ScalarEvolutionEPNS_4LoopERN12_GLOBAL__N_18LoopICmpE(ptr noundef %0, ptr noundef %1, ptr noundef nonnull align 8 dereferenceable(24) %2) #1 {
  %4 = alloca ptr, align 8
  %5 = alloca ptr, align 8
  %6 = alloca ptr, align 8
  store ptr %0, ptr %4, align 8
  store ptr %1, ptr %5, align 8
  store ptr %2, ptr %6, align 8
  %7 = load ptr, ptr %6, align 8
  %8 = getelementptr inbounds nuw %"struct.(anonymous namespace)::LoopICmp", ptr %7, i32 0, i32 0
  %9 = load i32, ptr %8, align 8
  %10 = call noundef zeroext i1 @_ZN4llvm8ICmpInst10isEqualityENS_7CmpInst9PredicateE(i32 noundef %9)
  br i1 %10, label %11, label %36

11:                                               ; preds = %3
  %12 = load ptr, ptr %6, align 8
  %13 = getelementptr inbounds nuw %"struct.(anonymous namespace)::LoopICmp", ptr %12, i32 0, i32 1
  %14 = load ptr, ptr %13, align 8
  %15 = load ptr, ptr %4, align 8
  %16 = call noundef ptr @_ZNK4llvm14SCEVAddRecExpr17getStepRecurrenceERNS_15ScalarEvolutionE(ptr noundef nonnull align 8 dereferenceable(56) %14, ptr noundef nonnull align 8 dereferenceable(1392) %15)
  %17 = call noundef zeroext i1 @_ZNK4llvm4SCEV5isOneEv(ptr noundef nonnull align 8 dereferenceable(30) %16)
  br i1 %17, label %18, label %36

18:                                               ; preds = %11
  %19 = load ptr, ptr %4, align 8
  %20 = load ptr, ptr %6, align 8
  %21 = getelementptr inbounds nuw %"struct.(anonymous namespace)::LoopICmp", ptr %20, i32 0, i32 1
  %22 = load ptr, ptr %21, align 8
  %23 = call noundef ptr @_ZNK4llvm14SCEVAddRecExpr8getStartEv(ptr noundef nonnull align 8 dereferenceable(56) %22)
  %24 = load ptr, ptr %6, align 8
  %25 = getelementptr inbounds nuw %"struct.(anonymous namespace)::LoopICmp", ptr %24, i32 0, i32 2
  %26 = load ptr, ptr %25, align 8
  %27 = call noundef zeroext i1 @_ZN4llvm15ScalarEvolution16isKnownPredicateENS_7CmpInst9PredicateEPKNS_4SCEVES5_(ptr noundef nonnull align 8 dereferenceable(1392) %19, i32 noundef 37, ptr noundef %23, ptr noundef %26)
  br i1 %27, label %28, label %36

28:                                               ; preds = %18
  %29 = load ptr, ptr %6, align 8
  %30 = getelementptr inbounds nuw %"struct.(anonymous namespace)::LoopICmp", ptr %29, i32 0, i32 0
  %31 = load i32, ptr %30, align 8
  %32 = icmp eq i32 %31, 33
  %33 = select i1 %32, i32 36, i32 35
  %34 = load ptr, ptr %6, align 8
  %35 = getelementptr inbounds nuw %"struct.(anonymous namespace)::LoopICmp", ptr %34, i32 0, i32 0
  store i32 %33, ptr %35, align 8
  br label %36

36:                                               ; preds = %28, %18, %11, %3
  ret void
}