; Function Attrs: mustprogress nounwind uwtable
define internal fastcc void @_ZL18normalizePredicatePN4llvm15ScalarEvolutionEPNS_4LoopERN12_GLOBAL__N_18LoopICmpE(ptr noundef %0, ptr noundef nonnull align 8 captures(none) dereferenceable(24) %1) unnamed_addr #0 {
  %3 = load i32, ptr %1, align 8
  %4 = and i32 %3, -2
  %5 = icmp eq i32 %4, 32
  br i1 %5, label %6, label %23

6:                                                ; preds = %2
  %7 = getelementptr inbounds nuw i8, ptr %1, i64 8
  %8 = load ptr, ptr %7, align 8
  %9 = tail call noundef ptr @_ZNK4llvm14SCEVAddRecExpr17getStepRecurrenceERNS_15ScalarEvolutionE(ptr noundef nonnull align 8 dereferenceable(56) %8, ptr noundef nonnull align 8 dereferenceable(1392) %0)
  %10 = tail call noundef zeroext i1 @_ZNK4llvm4SCEV5isOneEv(ptr noundef nonnull align 8 dereferenceable(30) %9) #15
  br i1 %10, label %11, label %23

11:                                               ; preds = %6
  %12 = load ptr, ptr %7, align 8
  %13 = getelementptr inbounds nuw i8, ptr %12, i64 32
  %14 = load ptr, ptr %13, align 8
  %15 = load ptr, ptr %14, align 8
  %16 = getelementptr inbounds nuw i8, ptr %1, i64 16
  %17 = load ptr, ptr %16, align 8
  %18 = tail call noundef zeroext i1 @_ZN4llvm15ScalarEvolution16isKnownPredicateENS_7CmpInst9PredicateEPKNS_4SCEVES5_(ptr noundef nonnull align 8 dereferenceable(1392) %0, i32 noundef 37, ptr noundef %15, ptr noundef %17) #15
  br i1 %18, label %19, label %23

19:                                               ; preds = %11
  %20 = load i32, ptr %1, align 8
  %21 = icmp eq i32 %20, 33
  %22 = select i1 %21, i32 36, i32 35
  store i32 %22, ptr %1, align 8
  br label %23

23:                                               ; preds = %19, %11, %6, %2
  ret void
}